; ModuleID = 'source-C-CXX/26/1377.c'
source_filename = "source-C-CXX/26/1377.c"
target datalayout = "e-m:e-p270:32:32-p271:32:32-p272:64:64-i64:64-f80:128-n8:16:32:64-S128"
target triple = "x86_64-pc-linux-gnu"

@.str = private unnamed_addr constant [3 x i8] c"%d\00", align 1
@.str.1 = private unnamed_addr constant [10 x i8] c"%lf%lf%lf\00", align 1
@.str.2 = private unnamed_addr constant [13 x i8] c"x1=x2=%.5lf\0A\00", align 1
@.str.3 = private unnamed_addr constant [19 x i8] c"x1=%.5lf;x2=%.5lf\0A\00", align 1
@.str.4 = private unnamed_addr constant [33 x i8] c"x1=%.5lf+%.5lfi;x2=%.5lf-%.5lfi\0A\00", align 1

; Function Attrs: nofree nounwind sspstrong uwtable
define dso_local i32 @main(i32 %0, i8** nocapture readnone %1) local_unnamed_addr #0 {
  %3 = alloca i32, align 4
  %4 = alloca double, align 8
  %5 = alloca double, align 8
  %6 = alloca double, align 8
  %7 = bitcast i32* %3 to i8*
  call void @llvm.lifetime.start.p0i8(i64 4, i8* nonnull %7) #4
  %8 = call i32 (i8*, ...) @__isoc99_scanf(i8* getelementptr inbounds ([3 x i8], [3 x i8]* @.str, i64 0, i64 0), i32* nonnull %3)
  %9 = bitcast double* %4 to i8*
  %10 = bitcast double* %5 to i8*
  %11 = bitcast double* %6 to i8*
  %12 = load i32, i32* %3, align 4, !tbaa !5
  %13 = icmp sgt i32 %12, 0
  br i1 %13, label %14, label %74

14:                                               ; preds = %2, %70
  %15 = phi i32 [ %71, %70 ], [ 0, %2 ]
  call void @llvm.lifetime.start.p0i8(i64 8, i8* nonnull %9) #4
  call void @llvm.lifetime.start.p0i8(i64 8, i8* nonnull %10) #4
  call void @llvm.lifetime.start.p0i8(i64 8, i8* nonnull %11) #4
  %16 = call i32 (i8*, ...) @__isoc99_scanf(i8* getelementptr inbounds ([10 x i8], [10 x i8]* @.str.1, i64 0, i64 0), double* nonnull %4, double* nonnull %5, double* nonnull %6)
  %17 = load double, double* %5, align 8, !tbaa !9
  %18 = fmul double %17, %17
  %19 = load double, double* %4, align 8, !tbaa !9
  %20 = fmul double %19, 4.000000e+00
  %21 = load double, double* %6, align 8, !tbaa !9
  %22 = fmul double %20, %21
  %23 = fsub double %18, %22
  %24 = fcmp oeq double %17, 0.000000e+00
  br i1 %24, label %25, label %27

25:                                               ; preds = %14
  %26 = fneg double %17
  store double %26, double* %5, align 8, !tbaa !9
  br label %27

27:                                               ; preds = %25, %14
  %28 = phi double [ %26, %25 ], [ %17, %14 ]
  %29 = fcmp oeq double %23, 0.000000e+00
  br i1 %29, label %30, label %35

30:                                               ; preds = %27
  %31 = fneg double %28
  %32 = fmul double %19, 2.000000e+00
  %33 = fdiv double %31, %32
  %34 = call i32 (i8*, ...) @printf(i8* nonnull dereferenceable(1) getelementptr inbounds ([13 x i8], [13 x i8]* @.str.2, i64 0, i64 0), double %33)
  br label %70

35:                                               ; preds = %27
  %36 = fcmp ogt double %23, 0.000000e+00
  br i1 %36, label %37, label %51

37:                                               ; preds = %35
  %38 = call double @sqrt(double %23) #4
  %39 = fsub double %38, %28
  %40 = load double, double* %4, align 8, !tbaa !9
  %41 = fmul double %40, 2.000000e+00
  %42 = fdiv double %39, %41
  %43 = load double, double* %5, align 8, !tbaa !9
  %44 = fneg double %43
  %45 = call double @sqrt(double %23) #4
  %46 = fsub double %44, %45
  %47 = load double, double* %4, align 8, !tbaa !9
  %48 = fmul double %47, 2.000000e+00
  %49 = fdiv double %46, %48
  %50 = call i32 (i8*, ...) @printf(i8* nonnull dereferenceable(1) getelementptr inbounds ([19 x i8], [19 x i8]* @.str.3, i64 0, i64 0), double %42, double %49)
  br label %70

51:                                               ; preds = %35
  %52 = fcmp olt double %23, 0.000000e+00
  br i1 %52, label %53, label %70

53:                                               ; preds = %51
  %54 = fneg double %28
  %55 = fmul double %19, 2.000000e+00
  %56 = fdiv double %54, %55
  %57 = fneg double %23
  %58 = call double @sqrt(double %57) #4
  %59 = load double, double* %4, align 8, !tbaa !9
  %60 = fmul double %59, 2.000000e+00
  %61 = fdiv double %58, %60
  %62 = load double, double* %5, align 8, !tbaa !9
  %63 = fneg double %62
  %64 = fdiv double %63, %60
  %65 = call double @sqrt(double %57) #4
  %66 = load double, double* %4, align 8, !tbaa !9
  %67 = fmul double %66, 2.000000e+00
  %68 = fdiv double %65, %67
  %69 = call i32 (i8*, ...) @printf(i8* nonnull dereferenceable(1) getelementptr inbounds ([33 x i8], [33 x i8]* @.str.4, i64 0, i64 0), double %56, double %61, double %64, double %68)
  br label %70

70:                                               ; preds = %37, %53, %51, %30
  call void @llvm.lifetime.end.p0i8(i64 8, i8* nonnull %11) #4
  call void @llvm.lifetime.end.p0i8(i64 8, i8* nonnull %10) #4
  call void @llvm.lifetime.end.p0i8(i64 8, i8* nonnull %9) #4
  %71 = add nuw nsw i32 %15, 1
  %72 = load i32, i32* %3, align 4, !tbaa !5
  %73 = icmp slt i32 %71, %72
  br i1 %73, label %14, label %74, !llvm.loop !11

74:                                               ; preds = %70, %2
  call void @llvm.lifetime.end.p0i8(i64 4, i8* nonnull %7) #4
  ret i32 0
}

; Function Attrs: argmemonly mustprogress nofree nosync nounwind willreturn
declare void @llvm.lifetime.start.p0i8(i64 immarg, i8* nocapture) #1

; Function Attrs: nofree nounwind
declare noundef i32 @__isoc99_scanf(i8* nocapture noundef readonly, ...) local_unnamed_addr #2

; Function Attrs: nofree nounwind
declare noundef i32 @printf(i8* nocapture noundef readonly, ...) local_unnamed_addr #2

; Function Attrs: mustprogress nofree nounwind willreturn
declare double @sqrt(double) local_unnamed_addr #3

; Function Attrs: argmemonly mustprogress nofree nosync nounwind willreturn
declare void @llvm.lifetime.end.p0i8(i64 immarg, i8* nocapture) #1


!llvm.module.flags = !{!0, !1, !2, !3}
!llvm.ident = !{!4}

!0 = !{i32 1, !"wchar_size", i32 4}
!1 = !{i32 7, !"PIC Level", i32 2}
!2 = !{i32 7, !"PIE Level", i32 2}
!3 = !{i32 7, !"uwtable", i32 1}
!4 = !{!"clang version 13.0.0"}
!5 = !{!6, !6, i64 0}
!6 = !{!"int", !7, i64 0}
!7 = !{!"omnipotent char", !8, i64 0}
!8 = !{!"Simple C/C++ TBAA"}
!9 = !{!10, !10, i64 0}
!10 = !{!"double", !7, i64 0}
!11 = distinct !{!11, !12}
!12 = !{!"llvm.loop.mustprogress"}
